target datalayout = "e-m:e-p270:32:32-p271:32:32-p272:64:64-i64:64-i128:128-f80:128-n8:16:32:64-S128"
target triple = "x86_64-pc-linux-gnu"

%struct.lv_point_t = type { i32, i32 }
%struct.lv_area_t = type { i32, i32, i32, i32 }

; Function Attrs: nounwind uwtable
define void @lv_obj_get_transformed_area(ptr noundef %0, ptr noundef %1, i32 noundef %2) #0 {
  %4 = alloca ptr, align 8
  %5 = alloca ptr, align 8
  %6 = alloca i32, align 4
  %7 = alloca [4 x %struct.lv_point_t], align 16
  store ptr %0, ptr %4, align 8, !tbaa !3
  store ptr %1, ptr %5, align 8, !tbaa !3
  store i32 %2, ptr %6, align 4, !tbaa !7
  call void @llvm.lifetime.start.p0(i64 32, ptr %7) #5
  %8 = getelementptr inbounds nuw %struct.lv_point_t, ptr %7, i32 0, i32 0
  %9 = load ptr, ptr %5, align 8, !tbaa !3
  %10 = getelementptr inbounds nuw %struct.lv_area_t, ptr %9, i32 0, i32 0
  %11 = load i32, ptr %10, align 4, !tbaa !33
  store i32 %11, ptr %8, align 8, !tbaa !50
  %12 = getelementptr inbounds nuw %struct.lv_point_t, ptr %7, i32 0, i32 1
  %13 = load ptr, ptr %5, align 8, !tbaa !3
  %14 = getelementptr inbounds nuw %struct.lv_area_t, ptr %13, i32 0, i32 1
  %15 = load i32, ptr %14, align 4, !tbaa !34
  store i32 %15, ptr %12, align 4, !tbaa !51
  %16 = getelementptr inbounds %struct.lv_point_t, ptr %7, i64 1
  %17 = getelementptr inbounds nuw %struct.lv_point_t, ptr %16, i32 0, i32 0
  %18 = load ptr, ptr %5, align 8, !tbaa !3
  %19 = getelementptr inbounds nuw %struct.lv_area_t, ptr %18, i32 0, i32 0
  %20 = load i32, ptr %19, align 4, !tbaa !33
  store i32 %20, ptr %17, align 8, !tbaa !50
  %21 = getelementptr inbounds nuw %struct.lv_point_t, ptr %16, i32 0, i32 1
  %22 = load ptr, ptr %5, align 8, !tbaa !3
  %23 = getelementptr inbounds nuw %struct.lv_area_t, ptr %22, i32 0, i32 3
  %24 = load i32, ptr %23, align 4, !tbaa !36
  %25 = add nsw i32 %24, 1
  store i32 %25, ptr %21, align 4, !tbaa !51
  %26 = getelementptr inbounds %struct.lv_point_t, ptr %7, i64 2
  %27 = getelementptr inbounds nuw %struct.lv_point_t, ptr %26, i32 0, i32 0
  %28 = load ptr, ptr %5, align 8, !tbaa !3
  %29 = getelementptr inbounds nuw %struct.lv_area_t, ptr %28, i32 0, i32 2
  %30 = load i32, ptr %29, align 4, !tbaa !35
  %31 = add nsw i32 %30, 1
  store i32 %31, ptr %27, align 8, !tbaa !50
  %32 = getelementptr inbounds nuw %struct.lv_point_t, ptr %26, i32 0, i32 1
  %33 = load ptr, ptr %5, align 8, !tbaa !3
  %34 = getelementptr inbounds nuw %struct.lv_area_t, ptr %33, i32 0, i32 1
  %35 = load i32, ptr %34, align 4, !tbaa !34
  store i32 %35, ptr %32, align 4, !tbaa !51
  %36 = getelementptr inbounds %struct.lv_point_t, ptr %7, i64 3
  %37 = getelementptr inbounds nuw %struct.lv_point_t, ptr %36, i32 0, i32 0
  %38 = load ptr, ptr %5, align 8, !tbaa !3
  %39 = getelementptr inbounds nuw %struct.lv_area_t, ptr %38, i32 0, i32 2
  %40 = load i32, ptr %39, align 4, !tbaa !35
  %41 = add nsw i32 %40, 1
  store i32 %41, ptr %37, align 8, !tbaa !50
  %42 = getelementptr inbounds nuw %struct.lv_point_t, ptr %36, i32 0, i32 1
  %43 = load ptr, ptr %5, align 8, !tbaa !3
  %44 = getelementptr inbounds nuw %struct.lv_area_t, ptr %43, i32 0, i32 3
  %45 = load i32, ptr %44, align 4, !tbaa !36
  %46 = add nsw i32 %45, 1
  store i32 %46, ptr %42, align 4, !tbaa !51
  %47 = load ptr, ptr %4, align 8, !tbaa !3
  %48 = getelementptr inbounds [4 x %struct.lv_point_t], ptr %7, i64 0, i64 0
  %49 = load i32, ptr %6, align 4, !tbaa !7
  call void @lv_obj_transform_point_array(ptr noundef %47, ptr noundef %48, i64 noundef 4, i32 noundef %49)
  %50 = getelementptr inbounds [4 x %struct.lv_point_t], ptr %7, i64 0, i64 0
  %51 = getelementptr inbounds nuw %struct.lv_point_t, ptr %50, i32 0, i32 0
  %52 = load i32, ptr %51, align 16, !tbaa !50
  %53 = getelementptr inbounds [4 x %struct.lv_point_t], ptr %7, i64 0, i64 1
  %54 = getelementptr inbounds nuw %struct.lv_point_t, ptr %53, i32 0, i32 0
  %55 = load i32, ptr %54, align 8, !tbaa !50
  %56 = icmp slt i32 %52, %55
  br i1 %56, label %57, label %61

57:                                               ; preds = %3
  %58 = getelementptr inbounds [4 x %struct.lv_point_t], ptr %7, i64 0, i64 0
  %59 = getelementptr inbounds nuw %struct.lv_point_t, ptr %58, i32 0, i32 0
  %60 = load i32, ptr %59, align 16, !tbaa !50
  br label %65

61:                                               ; preds = %3
  %62 = getelementptr inbounds [4 x %struct.lv_point_t], ptr %7, i64 0, i64 1
  %63 = getelementptr inbounds nuw %struct.lv_point_t, ptr %62, i32 0, i32 0
  %64 = load i32, ptr %63, align 8, !tbaa !50
  br label %65

65:                                               ; preds = %61, %57
  %66 = phi i32 [ %60, %57 ], [ %64, %61 ]
  %67 = getelementptr inbounds [4 x %struct.lv_point_t], ptr %7, i64 0, i64 2
  %68 = getelementptr inbounds nuw %struct.lv_point_t, ptr %67, i32 0, i32 0
  %69 = load i32, ptr %68, align 16, !tbaa !50
  %70 = getelementptr inbounds [4 x %struct.lv_point_t], ptr %7, i64 0, i64 3
  %71 = getelementptr inbounds nuw %struct.lv_point_t, ptr %70, i32 0, i32 0
  %72 = load i32, ptr %71, align 8, !tbaa !50
  %73 = icmp slt i32 %69, %72
  br i1 %73, label %74, label %78

74:                                               ; preds = %65
  %75 = getelementptr inbounds [4 x %struct.lv_point_t], ptr %7, i64 0, i64 2
  %76 = getelementptr inbounds nuw %struct.lv_point_t, ptr %75, i32 0, i32 0
  %77 = load i32, ptr %76, align 16, !tbaa !50
  br label %82

78:                                               ; preds = %65
  %79 = getelementptr inbounds [4 x %struct.lv_point_t], ptr %7, i64 0, i64 3
  %80 = getelementptr inbounds nuw %struct.lv_point_t, ptr %79, i32 0, i32 0
  %81 = load i32, ptr %80, align 8, !tbaa !50
  br label %82

82:                                               ; preds = %78, %74
  %83 = phi i32 [ %77, %74 ], [ %81, %78 ]
  %84 = icmp slt i32 %66, %83
  br i1 %84, label %85, label %103

85:                                               ; preds = %82
  %86 = getelementptr inbounds [4 x %struct.lv_point_t], ptr %7, i64 0, i64 0
  %87 = getelementptr inbounds nuw %struct.lv_point_t, ptr %86, i32 0, i32 0
  %88 = load i32, ptr %87, align 16, !tbaa !50
  %89 = getelementptr inbounds [4 x %struct.lv_point_t], ptr %7, i64 0, i64 1
  %90 = getelementptr inbounds nuw %struct.lv_point_t, ptr %89, i32 0, i32 0
  %91 = load i32, ptr %90, align 8, !tbaa !50
  %92 = icmp slt i32 %88, %91
  br i1 %92, label %93, label %97

93:                                               ; preds = %85
  %94 = getelementptr inbounds [4 x %struct.lv_point_t], ptr %7, i64 0, i64 0
  %95 = getelementptr inbounds nuw %struct.lv_point_t, ptr %94, i32 0, i32 0
  %96 = load i32, ptr %95, align 16, !tbaa !50
  br label %101

97:                                               ; preds = %85
  %98 = getelementptr inbounds [4 x %struct.lv_point_t], ptr %7, i64 0, i64 1
  %99 = getelementptr inbounds nuw %struct.lv_point_t, ptr %98, i32 0, i32 0
  %100 = load i32, ptr %99, align 8, !tbaa !50
  br label %101

101:                                              ; preds = %97, %93
  %102 = phi i32 [ %96, %93 ], [ %100, %97 ]
  br label %121

103:                                              ; preds = %82
  %104 = getelementptr inbounds [4 x %struct.lv_point_t], ptr %7, i64 0, i64 2
  %105 = getelementptr inbounds nuw %struct.lv_point_t, ptr %104, i32 0, i32 0
  %106 = load i32, ptr %105, align 16, !tbaa !50
  %107 = getelementptr inbounds [4 x %struct.lv_point_t], ptr %7, i64 0, i64 3
  %108 = getelementptr inbounds nuw %struct.lv_point_t, ptr %107, i32 0, i32 0
  %109 = load i32, ptr %108, align 8, !tbaa !50
  %110 = icmp slt i32 %106, %109
  br i1 %110, label %111, label %115

111:                                              ; preds = %103
  %112 = getelementptr inbounds [4 x %struct.lv_point_t], ptr %7, i64 0, i64 2
  %113 = getelementptr inbounds nuw %struct.lv_point_t, ptr %112, i32 0, i32 0
  %114 = load i32, ptr %113, align 16, !tbaa !50
  br label %119

115:                                              ; preds = %103
  %116 = getelementptr inbounds [4 x %struct.lv_point_t], ptr %7, i64 0, i64 3
  %117 = getelementptr inbounds nuw %struct.lv_point_t, ptr %116, i32 0, i32 0
  %118 = load i32, ptr %117, align 8, !tbaa !50
  br label %119

119:                                              ; preds = %115, %111
  %120 = phi i32 [ %114, %111 ], [ %118, %115 ]
  br label %121

121:                                              ; preds = %119, %101
  %122 = phi i32 [ %102, %101 ], [ %120, %119 ]
  %123 = load ptr, ptr %5, align 8, !tbaa !3
  %124 = getelementptr inbounds nuw %struct.lv_area_t, ptr %123, i32 0, i32 0
  store i32 %122, ptr %124, align 4, !tbaa !33
  %125 = getelementptr inbounds [4 x %struct.lv_point_t], ptr %7, i64 0, i64 0
  %126 = getelementptr inbounds nuw %struct.lv_point_t, ptr %125, i32 0, i32 0
  %127 = load i32, ptr %126, align 16, !tbaa !50
  %128 = getelementptr inbounds [4 x %struct.lv_point_t], ptr %7, i64 0, i64 1
  %129 = getelementptr inbounds nuw %struct.lv_point_t, ptr %128, i32 0, i32 0
  %130 = load i32, ptr %129, align 8, !tbaa !50
  %131 = icmp sgt i32 %127, %130
  br i1 %131, label %132, label %136

132:                                              ; preds = %121
  %133 = getelementptr inbounds [4 x %struct.lv_point_t], ptr %7, i64 0, i64 0
  %134 = getelementptr inbounds nuw %struct.lv_point_t, ptr %133, i32 0, i32 0
  %135 = load i32, ptr %134, align 16, !tbaa !50
  br label %140

136:                                              ; preds = %121
  %137 = getelementptr inbounds [4 x %struct.lv_point_t], ptr %7, i64 0, i64 1
  %138 = getelementptr inbounds nuw %struct.lv_point_t, ptr %137, i32 0, i32 0
  %139 = load i32, ptr %138, align 8, !tbaa !50
  br label %140

140:                                              ; preds = %136, %132
  %141 = phi i32 [ %135, %132 ], [ %139, %136 ]
  %142 = getelementptr inbounds [4 x %struct.lv_point_t], ptr %7, i64 0, i64 2
  %143 = getelementptr inbounds nuw %struct.lv_point_t, ptr %142, i32 0, i32 0
  %144 = load i32, ptr %143, align 16, !tbaa !50
  %145 = getelementptr inbounds [4 x %struct.lv_point_t], ptr %7, i64 0, i64 3
  %146 = getelementptr inbounds nuw %struct.lv_point_t, ptr %145, i32 0, i32 0
  %147 = load i32, ptr %146, align 8, !tbaa !50
  %148 = icmp sgt i32 %144, %147
  br i1 %148, label %149, label %153

149:                                              ; preds = %140
  %150 = getelementptr inbounds [4 x %struct.lv_point_t], ptr %7, i64 0, i64 2
  %151 = getelementptr inbounds nuw %struct.lv_point_t, ptr %150, i32 0, i32 0
  %152 = load i32, ptr %151, align 16, !tbaa !50
  br label %157

153:                                              ; preds = %140
  %154 = getelementptr inbounds [4 x %struct.lv_point_t], ptr %7, i64 0, i64 3
  %155 = getelementptr inbounds nuw %struct.lv_point_t, ptr %154, i32 0, i32 0
  %156 = load i32, ptr %155, align 8, !tbaa !50
  br label %157

157:                                              ; preds = %153, %149
  %158 = phi i32 [ %152, %149 ], [ %156, %153 ]
  %159 = icmp sgt i32 %141, %158
  br i1 %159, label %160, label %178

160:                                              ; preds = %157
  %161 = getelementptr inbounds [4 x %struct.lv_point_t], ptr %7, i64 0, i64 0
  %162 = getelementptr inbounds nuw %struct.lv_point_t, ptr %161, i32 0, i32 0
  %163 = load i32, ptr %162, align 16, !tbaa !50
  %164 = getelementptr inbounds [4 x %struct.lv_point_t], ptr %7, i64 0, i64 1
  %165 = getelementptr inbounds nuw %struct.lv_point_t, ptr %164, i32 0, i32 0
  %166 = load i32, ptr %165, align 8, !tbaa !50
  %167 = icmp sgt i32 %163, %166
  br i1 %167, label %168, label %172

168:                                              ; preds = %160
  %169 = getelementptr inbounds [4 x %struct.lv_point_t], ptr %7, i64 0, i64 0
  %170 = getelementptr inbounds nuw %struct.lv_point_t, ptr %169, i32 0, i32 0
  %171 = load i32, ptr %170, align 16, !tbaa !50
  br label %176

172:                                              ; preds = %160
  %173 = getelementptr inbounds [4 x %struct.lv_point_t], ptr %7, i64 0, i64 1
  %174 = getelementptr inbounds nuw %struct.lv_point_t, ptr %173, i32 0, i32 0
  %175 = load i32, ptr %174, align 8, !tbaa !50
  br label %176

176:                                              ; preds = %172, %168
  %177 = phi i32 [ %171, %168 ], [ %175, %172 ]
  br label %196

178:                                              ; preds = %157
  %179 = getelementptr inbounds [4 x %struct.lv_point_t], ptr %7, i64 0, i64 2
  %180 = getelementptr inbounds nuw %struct.lv_point_t, ptr %179, i32 0, i32 0
  %181 = load i32, ptr %180, align 16, !tbaa !50
  %182 = getelementptr inbounds [4 x %struct.lv_point_t], ptr %7, i64 0, i64 3
  %183 = getelementptr inbounds nuw %struct.lv_point_t, ptr %182, i32 0, i32 0
  %184 = load i32, ptr %183, align 8, !tbaa !50
  %185 = icmp sgt i32 %181, %184
  br i1 %185, label %186, label %190

186:                                              ; preds = %178
  %187 = getelementptr inbounds [4 x %struct.lv_point_t], ptr %7, i64 0, i64 2
  %188 = getelementptr inbounds nuw %struct.lv_point_t, ptr %187, i32 0, i32 0
  %189 = load i32, ptr %188, align 16, !tbaa !50
  br label %194

190:                                              ; preds = %178
  %191 = getelementptr inbounds [4 x %struct.lv_point_t], ptr %7, i64 0, i64 3
  %192 = getelementptr inbounds nuw %struct.lv_point_t, ptr %191, i32 0, i32 0
  %193 = load i32, ptr %192, align 8, !tbaa !50
  br label %194

194:                                              ; preds = %190, %186
  %195 = phi i32 [ %189, %186 ], [ %193, %190 ]
  br label %196

196:                                              ; preds = %194, %176
  %197 = phi i32 [ %177, %176 ], [ %195, %194 ]
  %198 = load ptr, ptr %5, align 8, !tbaa !3
  %199 = getelementptr inbounds nuw %struct.lv_area_t, ptr %198, i32 0, i32 2
  store i32 %197, ptr %199, align 4, !tbaa !35
  %200 = getelementptr inbounds [4 x %struct.lv_point_t], ptr %7, i64 0, i64 0
  %201 = getelementptr inbounds nuw %struct.lv_point_t, ptr %200, i32 0, i32 1
  %202 = load i32, ptr %201, align 4, !tbaa !51
  %203 = getelementptr inbounds [4 x %struct.lv_point_t], ptr %7, i64 0, i64 1
  %204 = getelementptr inbounds nuw %struct.lv_point_t, ptr %203, i32 0, i32 1
  %205 = load i32, ptr %204, align 4, !tbaa !51
  %206 = icmp slt i32 %202, %205
  br i1 %206, label %207, label %211

207:                                              ; preds = %196
  %208 = getelementptr inbounds [4 x %struct.lv_point_t], ptr %7, i64 0, i64 0
  %209 = getelementptr inbounds nuw %struct.lv_point_t, ptr %208, i32 0, i32 1
  %210 = load i32, ptr %209, align 4, !tbaa !51
  br label %215

211:                                              ; preds = %196
  %212 = getelementptr inbounds [4 x %struct.lv_point_t], ptr %7, i64 0, i64 1
  %213 = getelementptr inbounds nuw %struct.lv_point_t, ptr %212, i32 0, i32 1
  %214 = load i32, ptr %213, align 4, !tbaa !51
  br label %215

215:                                              ; preds = %211, %207
  %216 = phi i32 [ %210, %207 ], [ %214, %211 ]
  %217 = getelementptr inbounds [4 x %struct.lv_point_t], ptr %7, i64 0, i64 2
  %218 = getelementptr inbounds nuw %struct.lv_point_t, ptr %217, i32 0, i32 1
  %219 = load i32, ptr %218, align 4, !tbaa !51
  %220 = getelementptr inbounds [4 x %struct.lv_point_t], ptr %7, i64 0, i64 3
  %221 = getelementptr inbounds nuw %struct.lv_point_t, ptr %220, i32 0, i32 1
  %222 = load i32, ptr %221, align 4, !tbaa !51
  %223 = icmp slt i32 %219, %222
  br i1 %223, label %224, label %228

224:                                              ; preds = %215
  %225 = getelementptr inbounds [4 x %struct.lv_point_t], ptr %7, i64 0, i64 2
  %226 = getelementptr inbounds nuw %struct.lv_point_t, ptr %225, i32 0, i32 1
  %227 = load i32, ptr %226, align 4, !tbaa !51
  br label %232

228:                                              ; preds = %215
  %229 = getelementptr inbounds [4 x %struct.lv_point_t], ptr %7, i64 0, i64 3
  %230 = getelementptr inbounds nuw %struct.lv_point_t, ptr %229, i32 0, i32 1
  %231 = load i32, ptr %230, align 4, !tbaa !51
  br label %232

232:                                              ; preds = %228, %224
  %233 = phi i32 [ %227, %224 ], [ %231, %228 ]
  %234 = icmp slt i32 %216, %233
  br i1 %234, label %235, label %253

235:                                              ; preds = %232
  %236 = getelementptr inbounds [4 x %struct.lv_point_t], ptr %7, i64 0, i64 0
  %237 = getelementptr inbounds nuw %struct.lv_point_t, ptr %236, i32 0, i32 1
  %238 = load i32, ptr %237, align 4, !tbaa !51
  %239 = getelementptr inbounds [4 x %struct.lv_point_t], ptr %7, i64 0, i64 1
  %240 = getelementptr inbounds nuw %struct.lv_point_t, ptr %239, i32 0, i32 1
  %241 = load i32, ptr %240, align 4, !tbaa !51
  %242 = icmp slt i32 %238, %241
  br i1 %242, label %243, label %247

243:                                              ; preds = %235
  %244 = getelementptr inbounds [4 x %struct.lv_point_t], ptr %7, i64 0, i64 0
  %245 = getelementptr inbounds nuw %struct.lv_point_t, ptr %244, i32 0, i32 1
  %246 = load i32, ptr %245, align 4, !tbaa !51
  br label %251

247:                                              ; preds = %235
  %248 = getelementptr inbounds [4 x %struct.lv_point_t], ptr %7, i64 0, i64 1
  %249 = getelementptr inbounds nuw %struct.lv_point_t, ptr %248, i32 0, i32 1
  %250 = load i32, ptr %249, align 4, !tbaa !51
  br label %251

251:                                              ; preds = %247, %243
  %252 = phi i32 [ %246, %243 ], [ %250, %247 ]
  br label %271

253:                                              ; preds = %232
  %254 = getelementptr inbounds [4 x %struct.lv_point_t], ptr %7, i64 0, i64 2
  %255 = getelementptr inbounds nuw %struct.lv_point_t, ptr %254, i32 0, i32 1
  %256 = load i32, ptr %255, align 4, !tbaa !51
  %257 = getelementptr inbounds [4 x %struct.lv_point_t], ptr %7, i64 0, i64 3
  %258 = getelementptr inbounds nuw %struct.lv_point_t, ptr %257, i32 0, i32 1
  %259 = load i32, ptr %258, align 4, !tbaa !51
  %260 = icmp slt i32 %256, %259
  br i1 %260, label %261, label %265

261:                                              ; preds = %253
  %262 = getelementptr inbounds [4 x %struct.lv_point_t], ptr %7, i64 0, i64 2
  %263 = getelementptr inbounds nuw %struct.lv_point_t, ptr %262, i32 0, i32 1
  %264 = load i32, ptr %263, align 4, !tbaa !51
  br label %269

265:                                              ; preds = %253
  %266 = getelementptr inbounds [4 x %struct.lv_point_t], ptr %7, i64 0, i64 3
  %267 = getelementptr inbounds nuw %struct.lv_point_t, ptr %266, i32 0, i32 1
  %268 = load i32, ptr %267, align 4, !tbaa !51
  br label %269

269:                                              ; preds = %265, %261
  %270 = phi i32 [ %264, %261 ], [ %268, %265 ]
  br label %271

271:                                              ; preds = %269, %251
  %272 = phi i32 [ %252, %251 ], [ %270, %269 ]
  %273 = load ptr, ptr %5, align 8, !tbaa !3
  %274 = getelementptr inbounds nuw %struct.lv_area_t, ptr %273, i32 0, i32 1
  store i32 %272, ptr %274, align 4, !tbaa !34
  %275 = getelementptr inbounds [4 x %struct.lv_point_t], ptr %7, i64 0, i64 0
  %276 = getelementptr inbounds nuw %struct.lv_point_t, ptr %275, i32 0, i32 1
  %277 = load i32, ptr %276, align 4, !tbaa !51
  %278 = getelementptr inbounds [4 x %struct.lv_point_t], ptr %7, i64 0, i64 1
  %279 = getelementptr inbounds nuw %struct.lv_point_t, ptr %278, i32 0, i32 1
  %280 = load i32, ptr %279, align 4, !tbaa !51
  %281 = icmp sgt i32 %277, %280
  br i1 %281, label %282, label %286

282:                                              ; preds = %271
  %283 = getelementptr inbounds [4 x %struct.lv_point_t], ptr %7, i64 0, i64 0
  %284 = getelementptr inbounds nuw %struct.lv_point_t, ptr %283, i32 0, i32 1
  %285 = load i32, ptr %284, align 4, !tbaa !51
  br label %290

286:                                              ; preds = %271
  %287 = getelementptr inbounds [4 x %struct.lv_point_t], ptr %7, i64 0, i64 1
  %288 = getelementptr inbounds nuw %struct.lv_point_t, ptr %287, i32 0, i32 1
  %289 = load i32, ptr %288, align 4, !tbaa !51
  br label %290

290:                                              ; preds = %286, %282
  %291 = phi i32 [ %285, %282 ], [ %289, %286 ]
  %292 = getelementptr inbounds [4 x %struct.lv_point_t], ptr %7, i64 0, i64 2
  %293 = getelementptr inbounds nuw %struct.lv_point_t, ptr %292, i32 0, i32 1
  %294 = load i32, ptr %293, align 4, !tbaa !51
  %295 = getelementptr inbounds [4 x %struct.lv_point_t], ptr %7, i64 0, i64 3
  %296 = getelementptr inbounds nuw %struct.lv_point_t, ptr %295, i32 0, i32 1
  %297 = load i32, ptr %296, align 4, !tbaa !51
  %298 = icmp sgt i32 %294, %297
  br i1 %298, label %299, label %303

299:                                              ; preds = %290
  %300 = getelementptr inbounds [4 x %struct.lv_point_t], ptr %7, i64 0, i64 2
  %301 = getelementptr inbounds nuw %struct.lv_point_t, ptr %300, i32 0, i32 1
  %302 = load i32, ptr %301, align 4, !tbaa !51
  br label %307

303:                                              ; preds = %290
  %304 = getelementptr inbounds [4 x %struct.lv_point_t], ptr %7, i64 0, i64 3
  %305 = getelementptr inbounds nuw %struct.lv_point_t, ptr %304, i32 0, i32 1
  %306 = load i32, ptr %305, align 4, !tbaa !51
  br label %307

307:                                              ; preds = %303, %299
  %308 = phi i32 [ %302, %299 ], [ %306, %303 ]
  %309 = icmp sgt i32 %291, %308
  br i1 %309, label %310, label %328

310:                                              ; preds = %307
  %311 = getelementptr inbounds [4 x %struct.lv_point_t], ptr %7, i64 0, i64 0
  %312 = getelementptr inbounds nuw %struct.lv_point_t, ptr %311, i32 0, i32 1
  %313 = load i32, ptr %312, align 4, !tbaa !51
  %314 = getelementptr inbounds [4 x %struct.lv_point_t], ptr %7, i64 0, i64 1
  %315 = getelementptr inbounds nuw %struct.lv_point_t, ptr %314, i32 0, i32 1
  %316 = load i32, ptr %315, align 4, !tbaa !51
  %317 = icmp sgt i32 %313, %316
  br i1 %317, label %318, label %322

318:                                              ; preds = %310
  %319 = getelementptr inbounds [4 x %struct.lv_point_t], ptr %7, i64 0, i64 0
  %320 = getelementptr inbounds nuw %struct.lv_point_t, ptr %319, i32 0, i32 1
  %321 = load i32, ptr %320, align 4, !tbaa !51
  br label %326

322:                                              ; preds = %310
  %323 = getelementptr inbounds [4 x %struct.lv_point_t], ptr %7, i64 0, i64 1
  %324 = getelementptr inbounds nuw %struct.lv_point_t, ptr %323, i32 0, i32 1
  %325 = load i32, ptr %324, align 4, !tbaa !51
  br label %326

326:                                              ; preds = %322, %318
  %327 = phi i32 [ %321, %318 ], [ %325, %322 ]
  br label %346

328:                                              ; preds = %307
  %329 = getelementptr inbounds [4 x %struct.lv_point_t], ptr %7, i64 0, i64 2
  %330 = getelementptr inbounds nuw %struct.lv_point_t, ptr %329, i32 0, i32 1
  %331 = load i32, ptr %330, align 4, !tbaa !51
  %332 = getelementptr inbounds [4 x %struct.lv_point_t], ptr %7, i64 0, i64 3
  %333 = getelementptr inbounds nuw %struct.lv_point_t, ptr %332, i32 0, i32 1
  %334 = load i32, ptr %333, align 4, !tbaa !51
  %335 = icmp sgt i32 %331, %334
  br i1 %335, label %336, label %340

336:                                              ; preds = %328
  %337 = getelementptr inbounds [4 x %struct.lv_point_t], ptr %7, i64 0, i64 2
  %338 = getelementptr inbounds nuw %struct.lv_point_t, ptr %337, i32 0, i32 1
  %339 = load i32, ptr %338, align 4, !tbaa !51
  br label %344

340:                                              ; preds = %328
  %341 = getelementptr inbounds [4 x %struct.lv_point_t], ptr %7, i64 0, i64 3
  %342 = getelementptr inbounds nuw %struct.lv_point_t, ptr %341, i32 0, i32 1
  %343 = load i32, ptr %342, align 4, !tbaa !51
  br label %344

344:                                              ; preds = %340, %336
  %345 = phi i32 [ %339, %336 ], [ %343, %340 ]
  br label %346

346:                                              ; preds = %344, %326
  %347 = phi i32 [ %327, %326 ], [ %345, %344 ]
  %348 = load ptr, ptr %5, align 8, !tbaa !3
  %349 = getelementptr inbounds nuw %struct.lv_area_t, ptr %348, i32 0, i32 3
  store i32 %347, ptr %349, align 4, !tbaa !36
  call void @llvm.lifetime.end.p0(i64 32, ptr %7) #5
  ret void
}