; Function Attrs: nounwind uwtable
define void @lv_obj_get_transformed_area(ptr noundef %0, ptr nocapture noundef %1, i32 noundef %2) local_unnamed_addr #0 {
  %4 = alloca [4 x %struct.lv_point_t], align 16
  call void @llvm.lifetime.start.p0(i64 32, ptr nonnull %4) #8
  %5 = load i32, ptr %1, align 4, !tbaa !31
  store i32 %5, ptr %4, align 16, !tbaa !18
  %6 = getelementptr inbounds nuw i8, ptr %4, i64 4
  %7 = getelementptr inbounds nuw i8, ptr %1, i64 4
  %8 = load i32, ptr %7, align 4, !tbaa !32
  store i32 %8, ptr %6, align 4, !tbaa !27
  %9 = getelementptr inbounds i8, ptr %4, i64 8
  store i32 %5, ptr %9, align 8, !tbaa !18
  %10 = getelementptr inbounds i8, ptr %4, i64 12
  %11 = getelementptr inbounds nuw i8, ptr %1, i64 12
  %12 = load i32, ptr %11, align 4, !tbaa !34
  %13 = add nsw i32 %12, 1
  store i32 %13, ptr %10, align 4, !tbaa !27
  %14 = getelementptr inbounds i8, ptr %4, i64 16
  %15 = getelementptr inbounds nuw i8, ptr %1, i64 8
  %16 = load i32, ptr %15, align 4, !tbaa !33
  %17 = add nsw i32 %16, 1
  store i32 %17, ptr %14, align 16, !tbaa !18
  %18 = getelementptr inbounds i8, ptr %4, i64 20
  store i32 %8, ptr %18, align 4, !tbaa !27
  %19 = getelementptr inbounds i8, ptr %4, i64 24
  store i32 %17, ptr %19, align 8, !tbaa !18
  %20 = getelementptr inbounds i8, ptr %4, i64 28
  store i32 %13, ptr %20, align 4, !tbaa !27
  call void @lv_obj_transform_point_array(ptr noundef %0, ptr noundef nonnull %4, i64 noundef 4, i32 noundef %2)
  %21 = load i32, ptr %4, align 16
  %22 = load i32, ptr %9, align 8
  %23 = call i32 @llvm.smin.i32(i32 %21, i32 %22)
  %24 = load i32, ptr %14, align 16
  %25 = load i32, ptr %19, align 8
  %26 = call i32 @llvm.smin.i32(i32 %24, i32 %25)
  %. = call i32 @llvm.smin.i32(i32 %23, i32 %26)
  store i32 %., ptr %1, align 4, !tbaa !31
  %27 = call i32 @llvm.smax.i32(i32 %21, i32 %22)
  %28 = call i32 @llvm.smax.i32(i32 %24, i32 %25)
  %29 = call i32 @llvm.smax.i32(i32 %27, i32 %28)
  store i32 %29, ptr %15, align 4, !tbaa !33
  %30 = load i32, ptr %6, align 4
  %31 = load i32, ptr %10, align 4
  %32 = call i32 @llvm.smin.i32(i32 %30, i32 %31)
  %33 = load i32, ptr %18, align 4
  %34 = load i32, ptr %20, align 4
  %35 = call i32 @llvm.smin.i32(i32 %33, i32 %34)
  %36 = call i32 @llvm.smin.i32(i32 %32, i32 %35)
  store i32 %36, ptr %7, align 4, !tbaa !32
  %37 = call i32 @llvm.smax.i32(i32 %30, i32 %31)
  %38 = call i32 @llvm.smax.i32(i32 %33, i32 %34)
  %39 = call i32 @llvm.smax.i32(i32 %37, i32 %38)
  store i32 %39, ptr %11, align 4, !tbaa !34
  call void @llvm.lifetime.end.p0(i64 32, ptr nonnull %4) #8
  ret void
}